target datalayout = "e-m:e-p270:32:32-p271:32:32-p272:64:64-i64:64-i128:128-f80:128-n8:16:32:64-S128"
target triple = "x86_64-pc-linux-gnu"

%struct._zend_array = type { %struct._zend_refcounted_h, %union.anon.4, i32, %union.anon.6, i32, i32, i32, i32, i64, ptr }
%struct._zend_refcounted_h = type { i32, %union.anon }
%union.anon = type { i32 }
%union.anon.4 = type { i32 }
%union.anon.6 = type { ptr }
%struct._zend_stack = type { i32, i32, i32, ptr }
%struct._zend_executor_globals = type { %struct._zval_struct, %struct._zval_struct, [32 x ptr], ptr, ptr, %struct._zend_array, %struct._zend_array, ptr, i32, i32, ptr, ptr, ptr, ptr, ptr, ptr, i64, ptr, ptr, i32, i32, i64, i32, i32, i32, i8, i8, %struct.zend_atomic_bool_s, %struct.zend_atomic_bool_s, ptr, i64, ptr, ptr, %struct._zend_array, %struct._zend_array, i32, i8, %struct._zval_struct, %struct._zval_struct, %struct._zend_stack, %struct._zend_stack, %struct._zend_stack, ptr, i32, i32, i64, ptr, ptr, ptr, %struct._zend_objects_store, ptr, ptr, ptr, [3 x %struct._zend_op], ptr, i8, i8, i64, i32, i32, ptr, [16 x %struct._HashTableIterator], ptr, %union._zend_function, %struct._zend_op, %struct._zend_array, i64, %struct.zend_get_gc_buffer, ptr, ptr, ptr, i64, i8, i32, ptr, ptr, i64, %struct._zend_call_stack, i64, i64, [6 x ptr] }
%struct.zend_atomic_bool_s = type { i8 }
%struct._zval_struct = type { %union._zend_value, %union.anon.0, %union.anon.3 }
%union._zend_value = type { i64 }
%union.anon.0 = type { i32 }
%union.anon.3 = type { i32 }
%struct._zend_objects_store = type { ptr, i32, i32, i32 }
%struct._HashTableIterator = type { ptr, i32, i32 }
%union._zend_function = type { %struct._zend_op_array }
%struct._zend_op_array = type { i8, [3 x i8], i32, ptr, ptr, ptr, i32, i32, ptr, ptr, ptr, ptr, i32, i32, i32, i32, ptr, ptr, ptr, ptr, ptr, i32, i32, ptr, ptr, ptr, i32, i32, i32, i32, ptr, ptr, [6 x ptr] }
%struct._zend_op = type { ptr, %union._znode_op, %union._znode_op, %union._znode_op, i32, i32, i8, i8, i8, i8 }
%union._znode_op = type { i32 }
%struct.zend_get_gc_buffer = type { ptr, ptr, ptr }
%struct._zend_call_stack = type { ptr, i64 }
%struct._zend_string = type { %struct._zend_refcounted_h, i64, i64, [1 x i8] }
%struct._zend_ini_entry = type { ptr, ptr, ptr, ptr, ptr, ptr, ptr, ptr, i32, i8, i8, i8 }

@executor_globals = external global %struct._zend_executor_globals, align 8
@.str.51 = private unnamed_addr constant [57 x i8] c"Invalid \22%s\22 setting. Value must be >= %lu, but got %lu\0A\00", align 1

; Function Attrs: nounwind uwtable
define internal i32 @OnUpdateReservedStackSize(ptr noundef %0, ptr noundef %1, ptr noundef %2, ptr noundef %3, ptr noundef %4, i32 noundef %5) #0 {
  %7 = alloca i32, align 4
  %8 = alloca ptr, align 8
  %9 = alloca ptr, align 8
  %10 = alloca ptr, align 8
  %11 = alloca ptr, align 8
  %12 = alloca ptr, align 8
  %13 = alloca i32, align 4
  %14 = alloca i64, align 8
  %15 = alloca i64, align 8
  store ptr %0, ptr %8, align 8
  store ptr %1, ptr %9, align 8
  store ptr %2, ptr %10, align 8
  store ptr %3, ptr %11, align 8
  store ptr %4, ptr %12, align 8
  store i32 %5, ptr %13, align 4
  %16 = load ptr, ptr %9, align 8
  %17 = load ptr, ptr %8, align 8
  %18 = getelementptr inbounds %struct._zend_ini_entry, ptr %17, i32 0, i32 0
  %19 = load ptr, ptr %18, align 8
  %20 = call i64 @zend_ini_parse_uquantity_warn(ptr noundef %16, ptr noundef %19)
  store i64 %20, ptr %14, align 8
  store i64 49152, ptr %15, align 8
  %21 = load i64, ptr %14, align 8
  %22 = icmp eq i64 %21, 0
  br i1 %22, label %23, label %25

23:                                               ; preds = %6
  %24 = load i64, ptr %15, align 8
  store i64 %24, ptr %14, align 8
  br label %38

25:                                               ; preds = %6
  %26 = load i64, ptr %14, align 8
  %27 = load i64, ptr %15, align 8
  %28 = icmp ult i64 %26, %27
  br i1 %28, label %29, label %37

29:                                               ; preds = %25
  %30 = load ptr, ptr %8, align 8
  %31 = getelementptr inbounds %struct._zend_ini_entry, ptr %30, i32 0, i32 0
  %32 = load ptr, ptr %31, align 8
  %33 = getelementptr inbounds %struct._zend_string, ptr %32, i32 0, i32 3
  %34 = getelementptr inbounds [1 x i8], ptr %33, i64 0, i64 0
  %35 = load i64, ptr %15, align 8
  %36 = load i64, ptr %14, align 8
  call void (i32, ptr, ...) @zend_error(i32 noundef 2, ptr noundef @.str.51, ptr noundef %34, i64 noundef %35, i64 noundef %36)
  store i32 -1, ptr %7, align 4
  br label %40

37:                                               ; preds = %25
  br label %38

38:                                               ; preds = %37, %23
  %39 = load i64, ptr %14, align 8
  store i64 %39, ptr getelementptr inbounds (%struct._zend_executor_globals, ptr @executor_globals, i32 0, i32 79), align 8
  store i32 0, ptr %7, align 4
  br label %40

40:                                               ; preds = %38, %29
  %41 = load i32, ptr %7, align 4
  ret i32 %41
}