; Function Attrs: nounwind uwtable
define internal noundef i32 @OnUpdateReservedStackSize(ptr nocapture noundef readonly %0, ptr noundef %1, ptr nocapture readnone %2, ptr nocapture readnone %3, ptr nocapture readnone %4, i32 %5) #0 {
  %7 = load ptr, ptr %0, align 8
  %8 = tail call i64 @zend_ini_parse_uquantity_warn(ptr noundef %1, ptr noundef %7) #30
  %9 = icmp eq i64 %8, 0
  br i1 %9, label %15, label %10

10:                                               ; preds = %6
  %11 = icmp ult i64 %8, 49152
  br i1 %11, label %12, label %15

12:                                               ; preds = %10
  %13 = load ptr, ptr %0, align 8
  %14 = getelementptr inbounds i8, ptr %13, i64 24
  tail call void (i32, ptr, ...) @zend_error(i32 noundef 2, ptr noundef nonnull @.str.51, ptr noundef nonnull %14, i64 noundef 49152, i64 noundef %8)
  br label %16

15:                                               ; preds = %6, %10
  %.010 = phi i64 [ %8, %10 ], [ 49152, %6 ]
  store i64 %.010, ptr getelementptr inbounds (%struct._zend_executor_globals, ptr @executor_globals, i64 0, i32 79), align 8
  br label %16

16:                                               ; preds = %15, %12
  %.0 = phi i32 [ 0, %15 ], [ -1, %12 ]
  ret i32 %.0
}